; Function Attrs: mustprogress uwtable
define noundef i32 @_ZNK6icu_7514CopticCalendar23defaultCenturyStartYearEv(ptr nocapture nonnull readnone align 8 %this) unnamed_addr #1 align 2 personality ptr @__gxx_personality_v0 {
entry:
  %0 = load atomic i32, ptr @_ZN6icu_75L25gSystemDefaultCenturyInitE acquire, align 4
  %cmp.i = icmp eq i32 %0, 2
  br i1 %cmp.i, label %_ZN6icu_7513umtx_initOnceERNS_9UInitOnceEPFvvE.exit, label %if.end.i

if.end.i:                                         ; preds = %entry
  %call1.i = tail call noundef signext i8 @_ZN6icu_7520umtx_initImplPreInitERNS_9UInitOnceE(ptr noundef nonnull align 4 dereferenceable(8) @_ZN6icu_75L25gSystemDefaultCenturyInitE)
  %tobool.not.i = icmp eq i8 %call1.i, 0
  br i1 %tobool.not.i, label %_ZN6icu_7513umtx_initOnceERNS_9UInitOnceEPFvvE.exit, label %if.then2.i

if.then2.i:                                       ; preds = %if.end.i
  tail call fastcc void @_ZN6icu_75L30initializeSystemDefaultCenturyEv()
  tail call void @_ZN6icu_7521umtx_initImplPostInitERNS_9UInitOnceE(ptr noundef nonnull align 4 dereferenceable(8) @_ZN6icu_75L25gSystemDefaultCenturyInitE)
  br label %_ZN6icu_7513umtx_initOnceERNS_9UInitOnceEPFvvE.exit

_ZN6icu_7513umtx_initOnceERNS_9UInitOnceEPFvvE.exit: ; preds = %entry, %if.end.i, %if.then2.i
  %1 = load i32, ptr @_ZN6icu_75L30gSystemDefaultCenturyStartYearE, align 4
  ret i32 %1
}